; ModuleID = '20/475.c'
source_filename = "20/475.c"
target datalayout = "e-m:e-p270:32:32-p271:32:32-p272:64:64-i64:64-f80:128-n8:16:32:64-S128"
target triple = "x86_64-pc-linux-gnu"

@.str = private unnamed_addr constant [6 x i8] c"%s %s\00", align 1
@.str.1 = private unnamed_addr constant [4 x i8] c"%s\0A\00", align 1

; Function Attrs: noinline nounwind uwtable
define dso_local void @main() #0 {
  %1 = alloca [100 x [10 x i8]], align 16
  %2 = alloca [100 x [3 x i8]], align 16
  %3 = alloca i8, align 1
  %4 = alloca [100 x [30 x i8]], align 16
  %5 = alloca [100 x [10 x i8]], align 16
  %6 = alloca i32, align 4
  %7 = alloca i32, align 4
  %8 = alloca i32, align 4
  %9 = alloca i32, align 4
  %10 = alloca i32, align 4
  %11 = bitcast [100 x [30 x i8]]* %4 to i8*
  call void @llvm.memset.p0i8.i64(i8* align 16 %11, i8 0, i64 3000, i1 false)
  %12 = bitcast [100 x [10 x i8]]* %5 to i8*
  call void @llvm.memset.p0i8.i64(i8* align 16 %12, i8 0, i64 1000, i1 false)
  store i32 0, i32* %7, align 4
  br label %13

13:                                               ; preds = %115, %0
  %14 = load i32, i32* %7, align 4
  %15 = sext i32 %14 to i64
  %16 = getelementptr inbounds [100 x [10 x i8]], [100 x [10 x i8]]* %1, i64 0, i64 %15
  %17 = getelementptr inbounds [10 x i8], [10 x i8]* %16, i64 0, i64 0
  %18 = load i32, i32* %7, align 4
  %19 = sext i32 %18 to i64
  %20 = getelementptr inbounds [100 x [3 x i8]], [100 x [3 x i8]]* %2, i64 0, i64 %19
  %21 = getelementptr inbounds [3 x i8], [3 x i8]* %20, i64 0, i64 0
  %22 = call i32 (i8*, ...) @__isoc99_scanf(i8* getelementptr inbounds ([6 x i8], [6 x i8]* @.str, i64 0, i64 0), i8* %17, i8* %21)
  %23 = icmp ne i32 %22, -1
  br i1 %23, label %24, label %141

24:                                               ; preds = %13
  %25 = load i32, i32* %7, align 4
  %26 = sext i32 %25 to i64
  %27 = getelementptr inbounds [100 x [10 x i8]], [100 x [10 x i8]]* %1, i64 0, i64 %26
  %28 = getelementptr inbounds [10 x i8], [10 x i8]* %27, i64 0, i64 0
  %29 = call i64 @strlen(i8* %28) #5
  %30 = trunc i64 %29 to i32
  store i32 %30, i32* %8, align 4
  %31 = load i32, i32* %7, align 4
  %32 = sext i32 %31 to i64
  %33 = getelementptr inbounds [100 x [10 x i8]], [100 x [10 x i8]]* %1, i64 0, i64 %32
  %34 = getelementptr inbounds [10 x i8], [10 x i8]* %33, i64 0, i64 0
  %35 = load i8, i8* %34, align 2
  store i8 %35, i8* %3, align 1
  store i32 1, i32* %6, align 4
  br label %36

36:                                               ; preds = %62, %24
  %37 = load i32, i32* %6, align 4
  %38 = load i32, i32* %8, align 4
  %39 = icmp slt i32 %37, %38
  br i1 %39, label %40, label %65

40:                                               ; preds = %36
  %41 = load i32, i32* %7, align 4
  %42 = sext i32 %41 to i64
  %43 = getelementptr inbounds [100 x [10 x i8]], [100 x [10 x i8]]* %1, i64 0, i64 %42
  %44 = load i32, i32* %6, align 4
  %45 = sext i32 %44 to i64
  %46 = getelementptr inbounds [10 x i8], [10 x i8]* %43, i64 0, i64 %45
  %47 = load i8, i8* %46, align 1
  %48 = sext i8 %47 to i32
  %49 = load i8, i8* %3, align 1
  %50 = sext i8 %49 to i32
  %51 = icmp sgt i32 %48, %50
  br i1 %51, label %52, label %61

52:                                               ; preds = %40
  %53 = load i32, i32* %7, align 4
  %54 = sext i32 %53 to i64
  %55 = getelementptr inbounds [100 x [10 x i8]], [100 x [10 x i8]]* %1, i64 0, i64 %54
  %56 = load i32, i32* %6, align 4
  %57 = sext i32 %56 to i64
  %58 = getelementptr inbounds [10 x i8], [10 x i8]* %55, i64 0, i64 %57
  %59 = load i8, i8* %58, align 1
  store i8 %59, i8* %3, align 1
  %60 = load i32, i32* %6, align 4
  store i32 %60, i32* %9, align 4
  br label %61

61:                                               ; preds = %52, %40
  br label %62

62:                                               ; preds = %61
  %63 = load i32, i32* %6, align 4
  %64 = add nsw i32 %63, 1
  store i32 %64, i32* %6, align 4
  br label %36

65:                                               ; preds = %36
  store i32 0, i32* %10, align 4
  store i32 0, i32* %6, align 4
  br label %66

66:                                               ; preds = %84, %65
  %67 = load i32, i32* %10, align 4
  %68 = load i32, i32* %9, align 4
  %69 = icmp sle i32 %67, %68
  br i1 %69, label %70, label %89

70:                                               ; preds = %66
  %71 = load i32, i32* %7, align 4
  %72 = sext i32 %71 to i64
  %73 = getelementptr inbounds [100 x [10 x i8]], [100 x [10 x i8]]* %1, i64 0, i64 %72
  %74 = load i32, i32* %6, align 4
  %75 = sext i32 %74 to i64
  %76 = getelementptr inbounds [10 x i8], [10 x i8]* %73, i64 0, i64 %75
  %77 = load i8, i8* %76, align 1
  %78 = load i32, i32* %7, align 4
  %79 = sext i32 %78 to i64
  %80 = getelementptr inbounds [100 x [30 x i8]], [100 x [30 x i8]]* %4, i64 0, i64 %79
  %81 = load i32, i32* %10, align 4
  %82 = sext i32 %81 to i64
  %83 = getelementptr inbounds [30 x i8], [30 x i8]* %80, i64 0, i64 %82
  store i8 %77, i8* %83, align 1
  br label %84

84:                                               ; preds = %70
  %85 = load i32, i32* %10, align 4
  %86 = add nsw i32 %85, 1
  store i32 %86, i32* %10, align 4
  %87 = load i32, i32* %6, align 4
  %88 = add nsw i32 %87, 1
  store i32 %88, i32* %6, align 4
  br label %66

89:                                               ; preds = %66
  store i32 0, i32* %10, align 4
  %90 = load i32, i32* %9, align 4
  %91 = add nsw i32 %90, 1
  store i32 %91, i32* %6, align 4
  br label %92

92:                                               ; preds = %110, %89
  %93 = load i32, i32* %6, align 4
  %94 = load i32, i32* %8, align 4
  %95 = icmp slt i32 %93, %94
  br i1 %95, label %96, label %115

96:                                               ; preds = %92
  %97 = load i32, i32* %7, align 4
  %98 = sext i32 %97 to i64
  %99 = getelementptr inbounds [100 x [10 x i8]], [100 x [10 x i8]]* %1, i64 0, i64 %98
  %100 = load i32, i32* %6, align 4
  %101 = sext i32 %100 to i64
  %102 = getelementptr inbounds [10 x i8], [10 x i8]* %99, i64 0, i64 %101
  %103 = load i8, i8* %102, align 1
  %104 = load i32, i32* %7, align 4
  %105 = sext i32 %104 to i64
  %106 = getelementptr inbounds [100 x [10 x i8]], [100 x [10 x i8]]* %5, i64 0, i64 %105
  %107 = load i32, i32* %10, align 4
  %108 = sext i32 %107 to i64
  %109 = getelementptr inbounds [10 x i8], [10 x i8]* %106, i64 0, i64 %108
  store i8 %103, i8* %109, align 1
  br label %110

110:                                              ; preds = %96
  %111 = load i32, i32* %10, align 4
  %112 = add nsw i32 %111, 1
  store i32 %112, i32* %10, align 4
  %113 = load i32, i32* %6, align 4
  %114 = add nsw i32 %113, 1
  store i32 %114, i32* %6, align 4
  br label %92

115:                                              ; preds = %92
  %116 = load i32, i32* %7, align 4
  %117 = sext i32 %116 to i64
  %118 = getelementptr inbounds [100 x [30 x i8]], [100 x [30 x i8]]* %4, i64 0, i64 %117
  %119 = getelementptr inbounds [30 x i8], [30 x i8]* %118, i64 0, i64 0
  %120 = load i32, i32* %7, align 4
  %121 = sext i32 %120 to i64
  %122 = getelementptr inbounds [100 x [3 x i8]], [100 x [3 x i8]]* %2, i64 0, i64 %121
  %123 = getelementptr inbounds [3 x i8], [3 x i8]* %122, i64 0, i64 0
  %124 = call i8* @strcat(i8* %119, i8* %123) #6
  %125 = load i32, i32* %7, align 4
  %126 = sext i32 %125 to i64
  %127 = getelementptr inbounds [100 x [30 x i8]], [100 x [30 x i8]]* %4, i64 0, i64 %126
  %128 = getelementptr inbounds [30 x i8], [30 x i8]* %127, i64 0, i64 0
  %129 = load i32, i32* %7, align 4
  %130 = sext i32 %129 to i64
  %131 = getelementptr inbounds [100 x [10 x i8]], [100 x [10 x i8]]* %5, i64 0, i64 %130
  %132 = getelementptr inbounds [10 x i8], [10 x i8]* %131, i64 0, i64 0
  %133 = call i8* @strcat(i8* %128, i8* %132) #6
  %134 = load i32, i32* %7, align 4
  %135 = sext i32 %134 to i64
  %136 = getelementptr inbounds [100 x [30 x i8]], [100 x [30 x i8]]* %4, i64 0, i64 %135
  %137 = getelementptr inbounds [30 x i8], [30 x i8]* %136, i64 0, i64 0
  %138 = call i32 (i8*, ...) @printf(i8* getelementptr inbounds ([4 x i8], [4 x i8]* @.str.1, i64 0, i64 0), i8* %137)
  %139 = load i32, i32* %7, align 4
  %140 = add nsw i32 %139, 1
  store i32 %140, i32* %7, align 4
  br label %13

141:                                              ; preds = %13
  ret void
}

; Function Attrs: argmemonly nounwind willreturn
declare void @llvm.memset.p0i8.i64(i8* nocapture writeonly, i8, i64, i1 immarg) #1

declare dso_local i32 @__isoc99_scanf(i8*, ...) #2

; Function Attrs: nounwind readonly
declare dso_local i64 @strlen(i8*) #3

; Function Attrs: nounwind
declare dso_local i8* @strcat(i8*, i8*) #4

declare dso_local i32 @printf(i8*, ...) #2


!llvm.module.flags = !{!0}
!llvm.ident = !{!1}

!0 = !{i32 1, !"wchar_size", i32 4}
!1 = !{!"clang version 10.0.0-4ubuntu1 "}
